(dp0
Vproject_steps
p1
(lp2
VDbPersistence
p3
asVproject_name
p4
VNode_MySQL
p5
sVproject_directory
p6
VD:\u005cPILOT\u000aodejs_mysql
p7
sVlanguage
p8
Vjavascript
p9
sVproject_page
p10
Vhttp://mission-rnd.github.io/nodejs_mysql.htm
p11
sVproject_status
p12
I0
sVproject_gitrepo
p13
Vhttps://github.com/mission-rnd/mrnd-nodejs-mysql
p14
sVproject_user
p15
Vjayadev_psk
p16
sVproject_validator
p17
Vjasmine-node --junitreport --captureExceptions spec/tests/
p18
s.